(i__main__
Game
p0
(dp1
S'expected'
p2
(F15.75
F32.85
F46.3
F56.9
F75.52
F93.15
F106.2
F132.2
F156.1
F170.2
F186.7
F209.1
F225.7
F256.7
F280.2
F309.3
F361.3
F385.5
F448.4
F467.2
tp3
sS'runs'
p4
(lp5
sS'levels'
p6
I21
sS'name'
p7
S'final ninja'
p8
sb.